target datalayout = "e-m:e-p270:32:32-p271:32:32-p272:64:64-i64:64-i128:128-f80:128-n8:16:32:64-S128"
target triple = "x86_64-pc-linux-gnu"

; Function Attrs: nounwind uwtable
define i32 @cl_verify_signature_hash(ptr noundef %0, ptr noundef %1, ptr noundef %2, i32 noundef %3, ptr noundef %4) #0 {
  %6 = alloca i32, align 4
  %7 = alloca ptr, align 8
  %8 = alloca ptr, align 8
  %9 = alloca ptr, align 8
  %10 = alloca i32, align 4
  %11 = alloca ptr, align 8
  %12 = alloca ptr, align 8
  %13 = alloca ptr, align 8
  %14 = alloca i64, align 8
  %15 = alloca i32, align 4
  store ptr %0, ptr %7, align 8, !tbaa !24
  store ptr %1, ptr %8, align 8, !tbaa !3
  store ptr %2, ptr %9, align 8, !tbaa !3
  store i32 %3, ptr %10, align 4, !tbaa !13
  store ptr %4, ptr %11, align 8, !tbaa !3
  call void @llvm.lifetime.start.p0(i64 8, ptr %12) #8
  call void @llvm.lifetime.start.p0(i64 8, ptr %13) #8
  call void @llvm.lifetime.start.p0(i64 8, ptr %14) #8
  %16 = load ptr, ptr %8, align 8, !tbaa !3
  %17 = call ptr @EVP_get_digestbyname(ptr noundef %16)
  store ptr %17, ptr %13, align 8, !tbaa !15
  %18 = load ptr, ptr %13, align 8, !tbaa !15
  %19 = icmp ne ptr %18, null
  br i1 %19, label %21, label %20

20:                                               ; preds = %5
  store i32 -1, ptr %6, align 4
  store i32 1, ptr %15, align 4
  br label %56

21:                                               ; preds = %5
  %22 = call ptr @EVP_MD_CTX_new()
  store ptr %22, ptr %12, align 8, !tbaa !17
  %23 = load ptr, ptr %12, align 8, !tbaa !17
  %24 = icmp ne ptr %23, null
  br i1 %24, label %26, label %25

25:                                               ; preds = %21
  store i32 -1, ptr %6, align 4
  store i32 1, ptr %15, align 4
  br label %56

26:                                               ; preds = %21
  %27 = load ptr, ptr %13, align 8, !tbaa !15
  %28 = call i32 @EVP_MD_get_size(ptr noundef %27)
  %29 = sext i32 %28 to i64
  store i64 %29, ptr %14, align 8, !tbaa !9
  %30 = load ptr, ptr %12, align 8, !tbaa !17
  call void @EVP_MD_CTX_set_flags(ptr noundef %30, i32 noundef 8)
  %31 = load ptr, ptr %12, align 8, !tbaa !17
  %32 = load ptr, ptr %13, align 8, !tbaa !15
  %33 = call i32 @EVP_DigestInit_ex(ptr noundef %31, ptr noundef %32, ptr noundef null)
  %34 = icmp ne i32 %33, 0
  br i1 %34, label %37, label %35

35:                                               ; preds = %26
  %36 = load ptr, ptr %12, align 8, !tbaa !17
  call void @EVP_MD_CTX_free(ptr noundef %36)
  store i32 -1, ptr %6, align 4
  store i32 1, ptr %15, align 4
  br label %56

37:                                               ; preds = %26
  %38 = load ptr, ptr %12, align 8, !tbaa !17
  %39 = load ptr, ptr %11, align 8, !tbaa !3
  %40 = load i64, ptr %14, align 8, !tbaa !9
  %41 = call i32 @EVP_DigestUpdate(ptr noundef %38, ptr noundef %39, i64 noundef %40)
  %42 = icmp ne i32 %41, 0
  br i1 %42, label %45, label %43

43:                                               ; preds = %37
  %44 = load ptr, ptr %12, align 8, !tbaa !17
  call void @EVP_MD_CTX_free(ptr noundef %44)
  store i32 -1, ptr %6, align 4
  store i32 1, ptr %15, align 4
  br label %56

45:                                               ; preds = %37
  %46 = load ptr, ptr %12, align 8, !tbaa !17
  %47 = load ptr, ptr %9, align 8, !tbaa !3
  %48 = load i32, ptr %10, align 4, !tbaa !13
  %49 = load ptr, ptr %7, align 8, !tbaa !24
  %50 = call i32 @EVP_VerifyFinal(ptr noundef %46, ptr noundef %47, i32 noundef %48, ptr noundef %49)
  %51 = icmp sle i32 %50, 0
  br i1 %51, label %52, label %54

52:                                               ; preds = %45
  %53 = load ptr, ptr %12, align 8, !tbaa !17
  call void @EVP_MD_CTX_free(ptr noundef %53)
  store i32 -1, ptr %6, align 4
  store i32 1, ptr %15, align 4
  br label %56

54:                                               ; preds = %45
  %55 = load ptr, ptr %12, align 8, !tbaa !17
  call void @EVP_MD_CTX_free(ptr noundef %55)
  store i32 0, ptr %6, align 4
  store i32 1, ptr %15, align 4
  br label %56

56:                                               ; preds = %54, %52, %43, %35, %25, %20
  call void @llvm.lifetime.end.p0(i64 8, ptr %14) #8
  call void @llvm.lifetime.end.p0(i64 8, ptr %13) #8
  call void @llvm.lifetime.end.p0(i64 8, ptr %12) #8
  %57 = load i32, ptr %6, align 4
  ret i32 %57
}