; Function Attrs: nounwind uwtable
define range(i32 -1, 1) i32 @cl_verify_signature_hash(ptr noundef %0, ptr noundef %1, ptr noundef %2, i32 noundef %3, ptr noundef %4) local_unnamed_addr #1 {
  %6 = tail call ptr @EVP_get_digestbyname(ptr noundef %1) #12
  %.not = icmp eq ptr %6, null
  br i1 %.not, label %20, label %7

7:                                                ; preds = %5
  %8 = tail call ptr @EVP_MD_CTX_new() #12
  %.not20 = icmp eq ptr %8, null
  br i1 %.not20, label %20, label %9

9:                                                ; preds = %7
  %10 = tail call i32 @EVP_MD_get_size(ptr noundef nonnull %6) #12
  tail call void @EVP_MD_CTX_set_flags(ptr noundef nonnull %8, i32 noundef 8) #12
  %11 = tail call i32 @EVP_DigestInit_ex(ptr noundef nonnull %8, ptr noundef nonnull %6, ptr noundef null) #12
  %.not21 = icmp eq i32 %11, 0
  br i1 %.not21, label %12, label %13

12:                                               ; preds = %9
  tail call void @EVP_MD_CTX_free(ptr noundef nonnull %8) #12
  br label %20

13:                                               ; preds = %9
  %14 = sext i32 %10 to i64
  %15 = tail call i32 @EVP_DigestUpdate(ptr noundef nonnull %8, ptr noundef %4, i64 noundef %14) #12
  %.not22 = icmp eq i32 %15, 0
  br i1 %.not22, label %16, label %17

16:                                               ; preds = %13
  tail call void @EVP_MD_CTX_free(ptr noundef nonnull %8) #12
  br label %20

17:                                               ; preds = %13
  %18 = tail call i32 @EVP_VerifyFinal(ptr noundef nonnull %8, ptr noundef %2, i32 noundef %3, ptr noundef %0) #12
  %19 = icmp slt i32 %18, 1
  tail call void @EVP_MD_CTX_free(ptr noundef nonnull %8) #12
  %. = sext i1 %19 to i32
  br label %20

20:                                               ; preds = %17, %7, %5, %16, %12
  %.0 = phi i32 [ -1, %16 ], [ -1, %12 ], [ -1, %5 ], [ -1, %7 ], [ %., %17 ]
  ret i32 %.0
}